target datalayout = "e-m:e-p270:32:32-p271:32:32-p272:64:64-i64:64-i128:128-f80:128-n8:16:32:64-S128"
target triple = "x86_64-pc-linux-gnu"

%struct._packet_info = type { ptr, ptr, i32, i32, %struct.nstime_t, %struct.nstime_t, %struct.nstime_t, i8, ptr, ptr, ptr, ptr, %struct._address, %struct._address, %struct._address, %struct._address, %struct._address, %struct._address, i32, ptr, i8, [3 x i8], %struct.anon, i32, i32, i32, i32, ptr, i8, ptr, ptr, i16, i16, i32, i32, i16, i32, i32, ptr, ptr, ptr, i8, i8, i16, i16, i16, i32, i16, i16, ptr, ptr, ptr, ptr, ptr, i32, i32 }
%struct.nstime_t = type { i64, i32 }
%struct._address = type { i32, i32, ptr, ptr }
%struct.anon = type { i8, [3 x i8] }
%struct._at_processed_cmd_t = type { [20 x i8], i16, i32, i32, i32, ptr }
%struct._at_packet_info_t = type { %struct._at_processed_cmd_t, %struct._at_processed_cmd_t, %struct._at_processed_cmd_t, %struct._at_processed_cmd_t }

@hf_cmgl_req_status = internal global i32 0, align 4
@hf_cmgl_msg_index = internal global i32 0, align 4
@hf_cmgl_msg_status = internal global i32 0, align 4
@hf_cmgl_msg_originator_name = internal global i32 0, align 4
@hf_cmgl_msg_length = internal global i32 0, align 4

; Function Attrs: alwaysinline nounwind
define internal ptr @memcpy.inline(ptr noalias %0, ptr noalias %1, i64 %2) #9 {
  %4 = alloca ptr, align 8
  %5 = alloca ptr, align 8
  %6 = alloca i64, align 8
  store ptr %0, ptr %4, align 8
  store ptr %1, ptr %5, align 8
  store i64 %2, ptr %6, align 8
  %7 = load ptr, ptr %4, align 8
  %8 = load ptr, ptr %5, align 8
  %9 = load i64, ptr %6, align 8
  %10 = load ptr, ptr %4, align 8
  %11 = call i64 @llvm.objectsize.i64.p0(ptr %10, i1 false, i1 true, i1 true)
  %12 = call ptr @__memcpy_chk(ptr noundef %7, ptr noundef %8, i64 noundef %9, i64 noundef %11) #12
  ret ptr %12
}

; Function Attrs: nounwind null_pointer_is_valid sspstrong uwtable
define internal ptr @get_current_role_last_command(ptr noundef %0, i32 noundef %1) #4 {
  %3 = alloca ptr, align 8
  %4 = alloca ptr, align 8
  %5 = alloca i32, align 4
  store ptr %0, ptr %4, align 8
  store i32 %1, ptr %5, align 4
  %6 = load ptr, ptr %4, align 8
  %7 = icmp ne ptr %6, null
  br i1 %7, label %9, label %8

8:                                                ; preds = %2
  store ptr null, ptr %3, align 8
  br label %20

9:                                                ; preds = %2
  %10 = load i32, ptr %5, align 4
  %11 = icmp eq i32 %10, 1
  br i1 %11, label %12, label %15

12:                                               ; preds = %9
  %13 = load ptr, ptr %4, align 8
  %14 = getelementptr inbounds nuw %struct._at_packet_info_t, ptr %13, i32 0, i32 3
  br label %18

15:                                               ; preds = %9
  %16 = load ptr, ptr %4, align 8
  %17 = getelementptr inbounds nuw %struct._at_packet_info_t, ptr %16, i32 0, i32 2
  br label %18

18:                                               ; preds = %15, %12
  %19 = phi ptr [ %14, %12 ], [ %17, %15 ]
  store ptr %19, ptr %3, align 8
  br label %20

20:                                               ; preds = %18, %8
  %21 = load ptr, ptr %3, align 8
  ret ptr %21
}

; Function Attrs: null_pointer_is_valid sspstrong uwtable
define internal i32 @get_uint_parameter(ptr noundef %0, ptr noundef %1, i32 noundef %2) #0 {
  %4 = alloca ptr, align 8
  %5 = alloca ptr, align 8
  %6 = alloca i32, align 4
  %7 = alloca i32, align 4
  %8 = alloca ptr, align 8
  store ptr %0, ptr %4, align 8
  store ptr %1, ptr %5, align 8
  store i32 %2, ptr %6, align 4
  call void @llvm.lifetime.start.p0(i64 4, ptr %7) #12
  call void @llvm.lifetime.start.p0(i64 8, ptr %8) #12
  %9 = load ptr, ptr %4, align 8
  %10 = load i32, ptr %6, align 4
  %11 = add i32 %10, 1
  %12 = sext i32 %11 to i64
  %13 = call noalias ptr @wmem_alloc(ptr noundef %9, i64 noundef %12) #13
  store ptr %13, ptr %8, align 8
  %14 = load ptr, ptr %8, align 8
  %15 = load ptr, ptr %5, align 8
  %16 = load i32, ptr %6, align 4
  %17 = sext i32 %16 to i64
  %18 = call ptr @memcpy.inline(ptr noundef %14, ptr noundef %15, i64 noundef %17) #12
  %19 = load ptr, ptr %8, align 8
  %20 = load i32, ptr %6, align 4
  %21 = sext i32 %20 to i64
  %22 = getelementptr i8, ptr %19, i64 %21
  store i8 0, ptr %22, align 1
  %23 = load ptr, ptr %8, align 8
  %24 = call i64 @g_ascii_strtoull(ptr noundef %23, ptr noundef null, i32 noundef 10)
  %25 = trunc i64 %24 to i32
  store i32 %25, ptr %7, align 4
  %26 = load i32, ptr %7, align 4
  call void @llvm.lifetime.end.p0(i64 8, ptr %8) #12
  call void @llvm.lifetime.end.p0(i64 4, ptr %7) #12
  ret i32 %26
}

; Function Attrs: null_pointer_is_valid sspstrong uwtable
define internal zeroext i1 @dissect_cmgl_parameter(ptr noundef %0, ptr noundef %1, ptr noundef %2, i32 noundef %3, i32 noundef %4, i16 noundef zeroext %5, ptr noundef %6, i32 noundef %7, i32 noundef %8, ptr noundef %9, ptr noundef %10) #0 {
  %12 = alloca i1, align 1
  %13 = alloca ptr, align 8
  %14 = alloca ptr, align 8
  %15 = alloca ptr, align 8
  %16 = alloca i32, align 4
  %17 = alloca i32, align 4
  %18 = alloca i16, align 2
  %19 = alloca ptr, align 8
  %20 = alloca i32, align 4
  %21 = alloca i32, align 4
  %22 = alloca ptr, align 8
  %23 = alloca ptr, align 8
  %24 = alloca i32, align 4
  %25 = alloca i32, align 4
  %26 = alloca ptr, align 8
  store ptr %0, ptr %13, align 8
  store ptr %1, ptr %14, align 8
  store ptr %2, ptr %15, align 8
  store i32 %3, ptr %16, align 4
  store i32 %4, ptr %17, align 4
  store i16 %5, ptr %18, align 2
  store ptr %6, ptr %19, align 8
  store i32 %7, ptr %20, align 4
  store i32 %8, ptr %21, align 4
  store ptr %9, ptr %22, align 8
  store ptr %10, ptr %23, align 8
  call void @llvm.lifetime.start.p0(i64 4, ptr %24) #12
  store i32 0, ptr %24, align 4
  %27 = load i32, ptr %17, align 4
  %28 = icmp eq i32 %27, 2
  br i1 %28, label %29, label %33

29:                                               ; preds = %11
  %30 = load i16, ptr %18, align 2
  %31 = zext i16 %30 to i32
  %32 = icmp eq i32 %31, 61
  br i1 %32, label %41, label %33

33:                                               ; preds = %29, %11
  %34 = load i32, ptr %17, align 4
  %35 = icmp eq i32 %34, 1
  br i1 %35, label %36, label %40

36:                                               ; preds = %33
  %37 = load i16, ptr %18, align 2
  %38 = zext i16 %37 to i32
  %39 = icmp eq i32 %38, 58
  br i1 %39, label %41, label %40

40:                                               ; preds = %36, %33
  store i1 false, ptr %12, align 1
  store i32 1, ptr %25, align 4
  br label %137

41:                                               ; preds = %36, %29
  %42 = load i32, ptr %17, align 4
  %43 = icmp eq i32 %42, 2
  br i1 %43, label %44, label %52

44:                                               ; preds = %41
  %45 = load i16, ptr %18, align 2
  %46 = zext i16 %45 to i32
  %47 = icmp eq i32 %46, 61
  br i1 %47, label %48, label %52

48:                                               ; preds = %44
  %49 = load i32, ptr %20, align 4
  %50 = icmp ugt i32 %49, 0
  br i1 %50, label %51, label %52

51:                                               ; preds = %48
  store i1 false, ptr %12, align 1
  store i32 1, ptr %25, align 4
  br label %137

52:                                               ; preds = %48, %44, %41
  %53 = load i32, ptr %17, align 4
  %54 = icmp eq i32 %53, 1
  br i1 %54, label %55, label %59

55:                                               ; preds = %52
  %56 = load i32, ptr %20, align 4
  %57 = icmp ugt i32 %56, 3
  br i1 %57, label %58, label %59

58:                                               ; preds = %55
  store i1 false, ptr %12, align 1
  store i32 1, ptr %25, align 4
  br label %137

59:                                               ; preds = %55, %52
  br label %60

60:                                               ; preds = %59
  %61 = load i32, ptr %17, align 4
  %62 = icmp eq i32 %61, 2
  br i1 %62, label %63, label %74

63:                                               ; preds = %60
  %64 = load i16, ptr %18, align 2
  %65 = zext i16 %64 to i32
  %66 = icmp eq i32 %65, 61
  br i1 %66, label %67, label %74

67:                                               ; preds = %63
  %68 = load ptr, ptr %15, align 8
  %69 = load i32, ptr @hf_cmgl_req_status, align 4
  %70 = load ptr, ptr %13, align 8
  %71 = load i32, ptr %16, align 4
  %72 = load i32, ptr %21, align 4
  %73 = call ptr @proto_tree_add_item(ptr noundef %68, i32 noundef %69, ptr noundef %70, i32 noundef %71, i32 noundef %72, i32 noundef 0)
  br label %136

74:                                               ; preds = %63, %60
  %75 = load i32, ptr %20, align 4
  switch i32 %75, label %135 [
    i32 0, label %76
    i32 1, label %90
    i32 2, label %97
    i32 3, label %104
  ]

76:                                               ; preds = %74
  %77 = load ptr, ptr %14, align 8
  %78 = getelementptr inbounds nuw %struct._packet_info, ptr %77, i32 0, i32 51
  %79 = load ptr, ptr %78, align 8
  %80 = load ptr, ptr %19, align 8
  %81 = load i32, ptr %21, align 4
  %82 = call i32 @get_uint_parameter(ptr noundef %79, ptr noundef %80, i32 noundef %81)
  store i32 %82, ptr %24, align 4
  %83 = load ptr, ptr %15, align 8
  %84 = load i32, ptr @hf_cmgl_msg_index, align 4
  %85 = load ptr, ptr %13, align 8
  %86 = load i32, ptr %16, align 4
  %87 = load i32, ptr %21, align 4
  %88 = load i32, ptr %24, align 4
  %89 = call ptr @proto_tree_add_uint(ptr noundef %83, i32 noundef %84, ptr noundef %85, i32 noundef %86, i32 noundef %87, i32 noundef %88)
  br label %135

90:                                               ; preds = %74
  %91 = load ptr, ptr %15, align 8
  %92 = load i32, ptr @hf_cmgl_msg_status, align 4
  %93 = load ptr, ptr %13, align 8
  %94 = load i32, ptr %16, align 4
  %95 = load i32, ptr %21, align 4
  %96 = call ptr @proto_tree_add_item(ptr noundef %91, i32 noundef %92, ptr noundef %93, i32 noundef %94, i32 noundef %95, i32 noundef 0)
  br label %135

97:                                               ; preds = %74
  %98 = load ptr, ptr %15, align 8
  %99 = load i32, ptr @hf_cmgl_msg_originator_name, align 4
  %100 = load ptr, ptr %13, align 8
  %101 = load i32, ptr %16, align 4
  %102 = load i32, ptr %21, align 4
  %103 = call ptr @proto_tree_add_item(ptr noundef %98, i32 noundef %99, ptr noundef %100, i32 noundef %101, i32 noundef %102, i32 noundef 0)
  br label %135

104:                                              ; preds = %74
  %105 = load ptr, ptr %14, align 8
  %106 = getelementptr inbounds nuw %struct._packet_info, ptr %105, i32 0, i32 51
  %107 = load ptr, ptr %106, align 8
  %108 = load ptr, ptr %19, align 8
  %109 = load i32, ptr %21, align 4
  %110 = call i32 @get_uint_parameter(ptr noundef %107, ptr noundef %108, i32 noundef %109)
  store i32 %110, ptr %24, align 4
  %111 = load ptr, ptr %15, align 8
  %112 = load i32, ptr @hf_cmgl_msg_length, align 4
  %113 = load ptr, ptr %13, align 8
  %114 = load i32, ptr %16, align 4
  %115 = load i32, ptr %21, align 4
  %116 = load i32, ptr %24, align 4
  %117 = call ptr @proto_tree_add_uint(ptr noundef %111, i32 noundef %112, ptr noundef %113, i32 noundef %114, i32 noundef %115, i32 noundef %116)
  call void @llvm.lifetime.start.p0(i64 8, ptr %26) #12
  %118 = load ptr, ptr %22, align 8
  %119 = load i32, ptr %17, align 4
  %120 = call ptr @get_current_role_last_command(ptr noundef %118, i32 noundef %119)
  store ptr %120, ptr %26, align 8
  %121 = load ptr, ptr %26, align 8
  %122 = icmp ne ptr %121, null
  br i1 %122, label %124, label %123

123:                                              ; preds = %104
  store i32 2, ptr %25, align 4
  br label %134

124:                                              ; preds = %104
  %125 = load i16, ptr %18, align 2
  %126 = load ptr, ptr %26, align 8
  %127 = getelementptr inbounds nuw %struct._at_processed_cmd_t, ptr %126, i32 0, i32 1
  store i16 %125, ptr %127, align 4
  %128 = load ptr, ptr %26, align 8
  %129 = getelementptr inbounds nuw %struct._at_processed_cmd_t, ptr %128, i32 0, i32 2
  store i32 1, ptr %129, align 8
  %130 = load ptr, ptr %26, align 8
  %131 = getelementptr inbounds nuw %struct._at_processed_cmd_t, ptr %130, i32 0, i32 3
  store i32 0, ptr %131, align 4
  %132 = load ptr, ptr %26, align 8
  %133 = getelementptr inbounds nuw %struct._at_processed_cmd_t, ptr %132, i32 0, i32 5
  store ptr @dissect_cmgl_data_part, ptr %133, align 8
  store i32 2, ptr %25, align 4
  br label %134

134:                                              ; preds = %124, %123
  call void @llvm.lifetime.end.p0(i64 8, ptr %26) #12
  br label %135

135:                                              ; preds = %74, %134, %97, %90, %76
  br label %136

136:                                              ; preds = %135, %67
  store i1 true, ptr %12, align 1
  store i32 1, ptr %25, align 4
  br label %137

137:                                              ; preds = %136, %58, %51, %40
  call void @llvm.lifetime.end.p0(i64 4, ptr %24) #12
  %138 = load i1, ptr %12, align 1
  ret i1 %138
}