; Function Attrs: null_pointer_is_valid sspstrong uwtable
define internal noundef zeroext i1 @dissect_cmgl_parameter(ptr noundef %0, ptr noundef readonly captures(none) %1, ptr noundef %2, i32 noundef %3, i32 noundef %4, i16 noundef zeroext %5, ptr noundef readonly captures(none) %6, i32 noundef %7, i32 noundef %8, ptr noundef writeonly captures(address_is_null) %9, ptr readnone captures(none) %10) #0 {
  %12 = icmp eq i32 %4, 2
  %13 = icmp eq i16 %5, 61
  %or.cond = and i1 %12, %13
  br i1 %or.cond, label %18, label %14

14:                                               ; preds = %11
  %15 = icmp ne i32 %4, 1
  %16 = icmp ne i16 %5, 58
  %or.cond5.not70 = or i1 %15, %16
  %17 = icmp ugt i32 %7, 3
  %or.cond68 = or i1 %or.cond5.not70, %17
  br i1 %or.cond68, label %62, label %22

18:                                               ; preds = %11
  %.old.not = icmp eq i32 %7, 0
  br i1 %.old.not, label %19, label %62

19:                                               ; preds = %18
  %20 = load i32, ptr @hf_cmgl_req_status, align 4
  %21 = tail call ptr @proto_tree_add_item(ptr noundef %2, i32 noundef %20, ptr noundef %0, i32 noundef %3, i32 noundef %8, i32 noundef 0)
  br label %62

22:                                               ; preds = %14
  switch i32 %7, label %default.unreachable [
    i32 0, label %23
    i32 1, label %37
    i32 2, label %40
    i32 3, label %43
  ]

23:                                               ; preds = %22
  %24 = getelementptr inbounds nuw i8, ptr %1, i64 408
  %25 = load ptr, ptr %24, align 8
  %26 = add i32 %8, 1
  %27 = sext i32 %26 to i64
  %28 = tail call noalias ptr @wmem_alloc(ptr noundef %25, i64 noundef %27) #12
  %29 = sext i32 %8 to i64
  %30 = icmp ne i32 %26, -1
  tail call void @llvm.assume(i1 %30)
  %31 = tail call ptr @__memcpy_chk(ptr noundef %28, ptr noundef readonly %6, i64 noundef range(i64 -2147483648, 2147483648) %29, i64 noundef %27) #13, !alias.scope !83
  %32 = getelementptr i8, ptr %28, i64 %29
  store i8 0, ptr %32, align 1
  %33 = tail call i64 @g_ascii_strtoull(ptr noundef %28, ptr noundef null, i32 noundef 10)
  %34 = trunc i64 %33 to i32
  %35 = load i32, ptr @hf_cmgl_msg_index, align 4
  %36 = tail call ptr @proto_tree_add_uint(ptr noundef %2, i32 noundef %35, ptr noundef %0, i32 noundef %3, i32 noundef %8, i32 noundef %34)
  br label %62

37:                                               ; preds = %22
  %38 = load i32, ptr @hf_cmgl_msg_status, align 4
  %39 = tail call ptr @proto_tree_add_item(ptr noundef %2, i32 noundef %38, ptr noundef %0, i32 noundef %3, i32 noundef %8, i32 noundef 0)
  br label %62

40:                                               ; preds = %22
  %41 = load i32, ptr @hf_cmgl_msg_originator_name, align 4
  %42 = tail call ptr @proto_tree_add_item(ptr noundef %2, i32 noundef %41, ptr noundef %0, i32 noundef %3, i32 noundef %8, i32 noundef 0)
  br label %62

43:                                               ; preds = %22
  %44 = getelementptr inbounds nuw i8, ptr %1, i64 408
  %45 = load ptr, ptr %44, align 8
  %46 = add i32 %8, 1
  %47 = sext i32 %46 to i64
  %48 = tail call noalias ptr @wmem_alloc(ptr noundef %45, i64 noundef %47) #12
  %49 = sext i32 %8 to i64
  %50 = icmp ne i32 %46, -1
  tail call void @llvm.assume(i1 %50)
  %51 = tail call ptr @__memcpy_chk(ptr noundef %48, ptr noundef readonly %6, i64 noundef range(i64 -2147483648, 2147483648) %49, i64 noundef %47) #13, !alias.scope !87
  %52 = getelementptr i8, ptr %48, i64 %49
  store i8 0, ptr %52, align 1
  %53 = tail call i64 @g_ascii_strtoull(ptr noundef %48, ptr noundef null, i32 noundef 10)
  %54 = trunc i64 %53 to i32
  %55 = load i32, ptr @hf_cmgl_msg_length, align 4
  %56 = tail call ptr @proto_tree_add_uint(ptr noundef %2, i32 noundef %55, ptr noundef %0, i32 noundef %3, i32 noundef %8, i32 noundef %54)
  %.not.i = icmp eq ptr %9, null
  br i1 %.not.i, label %62, label %57

57:                                               ; preds = %43
  %58 = getelementptr inbounds nuw i8, ptr %9, i64 164
  store i16 58, ptr %58, align 4
  %59 = getelementptr inbounds nuw i8, ptr %9, i64 168
  store i32 1, ptr %59, align 8
  %60 = getelementptr inbounds nuw i8, ptr %9, i64 172
  store i32 0, ptr %60, align 4
  %61 = getelementptr inbounds nuw i8, ptr %9, i64 184
  store ptr @dissect_cmgl_data_part, ptr %61, align 8
  br label %62

default.unreachable:                              ; preds = %22
  unreachable

62:                                               ; preds = %19, %40, %37, %23, %43, %57, %18, %14
  %.0 = phi i1 [ false, %14 ], [ false, %18 ], [ true, %57 ], [ true, %43 ], [ true, %23 ], [ true, %37 ], [ true, %40 ], [ true, %19 ]
  ret i1 %.0
}